target datalayout = "e-m:e-p270:32:32-p271:32:32-p272:64:64-i64:64-i128:128-f80:128-n8:16:32:64-S128"
target triple = "x86_64-pc-linux-gnu"

%"class.logging::CheckOpResult" = type { ptr }
%"class.logging::LogMessage" = type <{ i32, [4 x i8], %"class.std::__cxx11::basic_ostringstream", i64, ptr, i32, [4 x i8] }>
%"class.std::__cxx11::basic_ostringstream" = type { %"class.std::basic_ostream.base", %"class.std::__cxx11::basic_stringbuf", %"class.std::basic_ios" }
%"class.std::basic_ostream.base" = type { ptr }
%"class.std::__cxx11::basic_stringbuf" = type { %"class.std::basic_streambuf", i32, %"class.std::__cxx11::basic_string" }
%"class.std::basic_streambuf" = type { ptr, ptr, ptr, ptr, ptr, ptr, ptr, %"class.std::locale" }
%"class.std::locale" = type { ptr }
%"class.std::__cxx11::basic_string" = type { %"struct.std::__cxx11::basic_string<char>::_Alloc_hider", i64, %union.anon }
%"struct.std::__cxx11::basic_string<char>::_Alloc_hider" = type { ptr }
%union.anon = type { i64, [8 x i8] }
%"class.std::basic_ios" = type { %"class.std::ios_base", ptr, i8, i8, ptr, ptr, ptr, ptr }
%"class.std::ios_base" = type { ptr, i64, i64, i32, i32, i32, ptr, %"struct.std::ios_base::_Words", [8 x %"struct.std::ios_base::_Words"], i32, ptr, %"class.std::locale" }
%"struct.std::ios_base::_Words" = type { ptr, i64 }
%"class.base::Pickle" = type { ptr, ptr, i64, i64, i64 }
%"class.logging::LogMessageVoidify" = type { i8 }

@.str = private unnamed_addr constant [112 x i8] c"generated/home/dtcxzyw/WorkSpace/Projects/compilers/llvm-opt-benchmark/bench/libquic/libquic/src/base/pickle.cc\00", align 1
@_ZN4baseL17kCapacityReadOnlyE = internal constant i64 -1, align 8
@.str.2 = private unnamed_addr constant [44 x i8] c"capacity_after_header_ != kCapacityReadOnly\00", align 1
@.str.3 = private unnamed_addr constant [2 x i8] c"p\00", align 1
@.str.4 = private unnamed_addr constant [109 x i8] c"generated/home/dtcxzyw/WorkSpace/Projects/compilers/llvm-opt-benchmark/bench/libquic/libquic/src/base/bits.h\00", align 1

; Function Attrs: mustprogress nounwind uwtable
define linkonce_odr void @_ZN7logging17LogMessageVoidifyanERSo(ptr noundef nonnull align 1 dereferenceable(1) %0, ptr noundef nonnull align 8 dereferenceable(8) %1) #2 comdat align 2 {
  %3 = alloca ptr, align 8
  %4 = alloca ptr, align 8
  store ptr %0, ptr %3, align 8, !tbaa !83
  store ptr %1, ptr %4, align 8, !tbaa !85
  ret void
}

; Function Attrs: mustprogress nounwind uwtable
define linkonce_odr void @_ZN7logging17LogMessageVoidifyC2Ev(ptr noundef nonnull align 1 dereferenceable(1) %0) unnamed_addr #2 comdat align 2 {
  %2 = alloca ptr, align 8
  store ptr %0, ptr %2, align 8, !tbaa !83
  ret void
}

; Function Attrs: mustprogress nounwind uwtable
define noundef i64 @_ZNK4base6Pickle21GetTotalAllocatedSizeEv(ptr noundef nonnull align 8 dereferenceable(40) %0) #2 align 2 {
  %2 = alloca i64, align 8
  %3 = alloca ptr, align 8
  store ptr %0, ptr %3, align 8, !tbaa !21
  %4 = load ptr, ptr %3, align 8
  %5 = getelementptr inbounds nuw %"class.base::Pickle", ptr %4, i32 0, i32 3
  %6 = load i64, ptr %5, align 8, !tbaa !79
  %7 = icmp eq i64 %6, -1
  br i1 %7, label %8, label %9

8:                                                ; preds = %1
  store i64 0, ptr %2, align 8
  br label %15

9:                                                ; preds = %1
  %10 = getelementptr inbounds nuw %"class.base::Pickle", ptr %4, i32 0, i32 2
  %11 = load i64, ptr %10, align 8, !tbaa !35
  %12 = getelementptr inbounds nuw %"class.base::Pickle", ptr %4, i32 0, i32 3
  %13 = load i64, ptr %12, align 8, !tbaa !79
  %14 = add i64 %11, %13
  store i64 %14, ptr %2, align 8
  br label %15

15:                                               ; preds = %9, %8
  %16 = load i64, ptr %2, align 8
  ret i64 %16
}

; Function Attrs: inlinehint mustprogress uwtable
define linkonce_odr noundef i64 @_ZN4base4bits5AlignEmm(i64 noundef %0, i64 noundef %1) #5 comdat {
  %3 = alloca i64, align 8
  %4 = alloca i64, align 8
  %5 = alloca %"class.logging::CheckOpResult", align 8
  %6 = alloca %"class.logging::LogMessage", align 8
  store i64 %0, ptr %3, align 8, !tbaa !24
  store i64 %1, ptr %4, align 8, !tbaa !24
  call void @llvm.lifetime.start.p0(i64 8, ptr %5) #11
  call void @_ZN7logging13CheckOpResultC2EPNSt7__cxx1112basic_stringIcSt11char_traitsIcESaIcEEE(ptr noundef nonnull align 8 dereferenceable(8) %5, ptr noundef null)
  %7 = call noundef zeroext i1 @_ZNK7logging13CheckOpResultcvbEv(ptr noundef nonnull align 8 dereferenceable(8) %5)
  br i1 %7, label %8, label %9

8:                                                ; preds = %2
  br label %12

9:                                                ; preds = %2
  call void @llvm.lifetime.start.p0(i64 408, ptr %6) #11
  %10 = call noundef ptr @_ZN7logging13CheckOpResult7messageB5cxx11Ev(ptr noundef nonnull align 8 dereferenceable(8) %5)
  call void @_ZN7logging10LogMessageC1EPKciiPNSt7__cxx1112basic_stringIcSt11char_traitsIcESaIcEEE(ptr noundef nonnull align 8 dereferenceable(404) %6, ptr noundef @.str.4, i32 noundef 48, i32 noundef 0, ptr noundef %10)
  %11 = call noundef nonnull align 8 dereferenceable(8) ptr @_ZN7logging10LogMessage6streamEv(ptr noundef nonnull align 8 dereferenceable(404) %6)
  call void @_ZN7logging10LogMessageD1Ev(ptr noundef nonnull align 8 dereferenceable(404) %6) #11
  call void @llvm.lifetime.end.p0(i64 408, ptr %6) #11
  br label %12

12:                                               ; preds = %9, %8
  call void @llvm.lifetime.end.p0(i64 8, ptr %5) #11
  %13 = load i64, ptr %3, align 8, !tbaa !24
  %14 = load i64, ptr %4, align 8, !tbaa !24
  %15 = add i64 %13, %14
  %16 = sub i64 %15, 1
  %17 = load i64, ptr %4, align 8, !tbaa !24
  %18 = sub i64 %17, 1
  %19 = xor i64 %18, -1
  %20 = and i64 %16, %19
  ret i64 %20
}

; Function Attrs: mustprogress nounwind uwtable
define linkonce_odr noundef nonnull align 8 dereferenceable(8) ptr @_ZN7logging10LogMessage6streamEv(ptr noundef nonnull align 8 dereferenceable(404) %0) #2 comdat align 2 {
  %2 = alloca ptr, align 8
  store ptr %0, ptr %2, align 8, !tbaa !14
  %3 = load ptr, ptr %2, align 8
  %4 = getelementptr inbounds nuw %"class.logging::LogMessage", ptr %3, i32 0, i32 2
  ret ptr %4
}

; Function Attrs: mustprogress nounwind uwtable
define linkonce_odr noundef ptr @_ZN7logging13CheckOpResult7messageB5cxx11Ev(ptr noundef nonnull align 8 dereferenceable(8) %0) #2 comdat align 2 {
  %2 = alloca ptr, align 8
  store ptr %0, ptr %2, align 8, !tbaa !8
  %3 = load ptr, ptr %2, align 8
  %4 = getelementptr inbounds nuw %"class.logging::CheckOpResult", ptr %3, i32 0, i32 0
  %5 = load ptr, ptr %4, align 8, !tbaa !12
  ret ptr %5
}

; Function Attrs: mustprogress nounwind uwtable
define linkonce_odr noundef zeroext i1 @_ZNK7logging13CheckOpResultcvbEv(ptr noundef nonnull align 8 dereferenceable(8) %0) #2 comdat align 2 {
  %2 = alloca ptr, align 8
  store ptr %0, ptr %2, align 8, !tbaa !8
  %3 = load ptr, ptr %2, align 8
  %4 = getelementptr inbounds nuw %"class.logging::CheckOpResult", ptr %3, i32 0, i32 0
  %5 = load ptr, ptr %4, align 8, !tbaa !12
  %6 = icmp ne ptr %5, null
  %7 = xor i1 %6, true
  ret i1 %7
}

; Function Attrs: mustprogress nounwind uwtable
define linkonce_odr void @_ZN7logging13CheckOpResultC2EPNSt7__cxx1112basic_stringIcSt11char_traitsIcESaIcEEE(ptr noundef nonnull align 8 dereferenceable(8) %0, ptr noundef %1) unnamed_addr #2 comdat align 2 {
  %3 = alloca ptr, align 8
  %4 = alloca ptr, align 8
  store ptr %0, ptr %3, align 8, !tbaa !8
  store ptr %1, ptr %4, align 8, !tbaa !10
  %5 = load ptr, ptr %3, align 8
  %6 = getelementptr inbounds nuw %"class.logging::CheckOpResult", ptr %5, i32 0, i32 0
  %7 = load ptr, ptr %4, align 8, !tbaa !10
  store ptr %7, ptr %6, align 8, !tbaa !12
  ret void
}

; Function Attrs: inlinehint mustprogress uwtable
define linkonce_odr noundef ptr @_ZN7logging11CheckNEImplImmEEPNSt7__cxx1112basic_stringIcSt11char_traitsIcESaIcEEERKT_RKT0_PKc(ptr noundef nonnull align 8 dereferenceable(8) %0, ptr noundef nonnull align 8 dereferenceable(8) %1, ptr noundef %2) #5 comdat {
  %4 = alloca ptr, align 8
  %5 = alloca ptr, align 8
  %6 = alloca ptr, align 8
  %7 = alloca ptr, align 8
  store ptr %0, ptr %5, align 8, !tbaa !47
  store ptr %1, ptr %6, align 8, !tbaa !47
  store ptr %2, ptr %7, align 8, !tbaa !38
  %8 = load ptr, ptr %5, align 8, !tbaa !47
  %9 = load i64, ptr %8, align 8, !tbaa !24
  %10 = load ptr, ptr %6, align 8, !tbaa !47
  %11 = load i64, ptr %10, align 8, !tbaa !24
  %12 = icmp ne i64 %9, %11
  br i1 %12, label %13, label %14

13:                                               ; preds = %3
  store ptr null, ptr %4, align 8
  br label %19

14:                                               ; preds = %3
  %15 = load ptr, ptr %5, align 8, !tbaa !47
  %16 = load ptr, ptr %6, align 8, !tbaa !47
  %17 = load ptr, ptr %7, align 8, !tbaa !38
  %18 = call noundef ptr @_ZN7logging17MakeCheckOpStringImmEEPNSt7__cxx1112basic_stringIcSt11char_traitsIcESaIcEEERKT_RKT0_PKc(ptr noundef nonnull align 8 dereferenceable(8) %15, ptr noundef nonnull align 8 dereferenceable(8) %16, ptr noundef %17)
  store ptr %18, ptr %4, align 8
  br label %19

19:                                               ; preds = %14, %13
  %20 = load ptr, ptr %4, align 8
  ret ptr %20
}

; Function Attrs: mustprogress uwtable
define void @_ZN4base6Pickle6ResizeEm(ptr noundef nonnull align 8 dereferenceable(40) %0, i64 noundef %1) #0 align 2 personality ptr @__gxx_personality_v0 {
  %3 = alloca ptr, align 8
  %4 = alloca i64, align 8
  %5 = alloca %"class.logging::CheckOpResult", align 8
  %6 = alloca %"class.logging::LogMessage", align 8
  %7 = alloca ptr, align 8
  %8 = alloca i32, align 4
  %9 = alloca ptr, align 8
  %10 = alloca %"class.logging::LogMessageVoidify", align 1
  %11 = alloca %"class.logging::LogMessage", align 8
  %12 = alloca i1, align 1
  %13 = alloca i1, align 1
  store ptr %0, ptr %3, align 8, !tbaa !21
  store i64 %1, ptr %4, align 8, !tbaa !24
  %14 = load ptr, ptr %3, align 8
  call void @llvm.lifetime.start.p0(i64 8, ptr %5) #11
  %15 = getelementptr inbounds nuw %"class.base::Pickle", ptr %14, i32 0, i32 3
  %16 = call noundef ptr @_ZN7logging11CheckNEImplImmEEPNSt7__cxx1112basic_stringIcSt11char_traitsIcESaIcEEERKT_RKT0_PKc(ptr noundef nonnull align 8 dereferenceable(8) %15, ptr noundef nonnull align 8 dereferenceable(8) @_ZN4baseL17kCapacityReadOnlyE, ptr noundef @.str.2)
  call void @_ZN7logging13CheckOpResultC2EPNSt7__cxx1112basic_stringIcSt11char_traitsIcESaIcEEE(ptr noundef nonnull align 8 dereferenceable(8) %5, ptr noundef %16)
  %17 = call noundef zeroext i1 @_ZNK7logging13CheckOpResultcvbEv(ptr noundef nonnull align 8 dereferenceable(8) %5)
  br i1 %17, label %18, label %19

18:                                               ; preds = %2
  br label %27

19:                                               ; preds = %2
  call void @llvm.lifetime.start.p0(i64 408, ptr %6) #11
  %20 = call noundef ptr @_ZN7logging13CheckOpResult7messageB5cxx11Ev(ptr noundef nonnull align 8 dereferenceable(8) %5)
  call void @_ZN7logging10LogMessageC1EPKciPNSt7__cxx1112basic_stringIcSt11char_traitsIcESaIcEEE(ptr noundef nonnull align 8 dereferenceable(404) %6, ptr noundef @.str, i32 noundef 381, ptr noundef %20)
  %21 = invoke noundef nonnull align 8 dereferenceable(8) ptr @_ZN7logging10LogMessage6streamEv(ptr noundef nonnull align 8 dereferenceable(404) %6)
          to label %22 unwind label %23

22:                                               ; preds = %19
  call void @_ZN7logging10LogMessageD1Ev(ptr noundef nonnull align 8 dereferenceable(404) %6) #11
  call void @llvm.lifetime.end.p0(i64 408, ptr %6) #11
  br label %27

23:                                               ; preds = %19
  %24 = landingpad { ptr, i32 }
          cleanup
  %25 = extractvalue { ptr, i32 } %24, 0
  store ptr %25, ptr %7, align 8
  %26 = extractvalue { ptr, i32 } %24, 1
  store i32 %26, ptr %8, align 4
  call void @_ZN7logging10LogMessageD1Ev(ptr noundef nonnull align 8 dereferenceable(404) %6) #11
  call void @llvm.lifetime.end.p0(i64 408, ptr %6) #11
  call void @llvm.lifetime.end.p0(i64 8, ptr %5) #11
  br label %61

27:                                               ; preds = %22, %18
  call void @llvm.lifetime.end.p0(i64 8, ptr %5) #11
  %28 = load i64, ptr %4, align 8, !tbaa !24
  %29 = call noundef i64 @_ZN4base4bits5AlignEmm(i64 noundef %28, i64 noundef 64)
  %30 = getelementptr inbounds nuw %"class.base::Pickle", ptr %14, i32 0, i32 3
  store i64 %29, ptr %30, align 8, !tbaa !79
  call void @llvm.lifetime.start.p0(i64 8, ptr %9) #11
  %31 = getelementptr inbounds nuw %"class.base::Pickle", ptr %14, i32 0, i32 1
  %32 = load ptr, ptr %31, align 8, !tbaa !32
  %33 = call noundef i64 @_ZNK4base6Pickle21GetTotalAllocatedSizeEv(ptr noundef nonnull align 8 dereferenceable(40) %14)
  %34 = call ptr @realloc(ptr noundef %32, i64 noundef %33) #13
  store ptr %34, ptr %9, align 8, !tbaa !23
  %35 = load ptr, ptr %9, align 8, !tbaa !23
  %36 = icmp ne ptr %35, null
  call void @llvm.lifetime.start.p0(i64 1, ptr %10) #11
  store i1 false, ptr %12, align 1
  store i1 false, ptr %13, align 1
  br i1 %36, label %37, label %38

37:                                               ; preds = %27
  br label %42

38:                                               ; preds = %27
  call void @_ZN7logging17LogMessageVoidifyC2Ev(ptr noundef nonnull align 1 dereferenceable(1) %10)
  call void @llvm.lifetime.start.p0(i64 408, ptr %11) #11
  store i1 true, ptr %12, align 1
  call void @_ZN7logging10LogMessageC1EPKciS2_(ptr noundef nonnull align 8 dereferenceable(404) %11, ptr noundef @.str, i32 noundef 384, ptr noundef @.str.3)
  store i1 true, ptr %13, align 1
  %39 = invoke noundef nonnull align 8 dereferenceable(8) ptr @_ZN7logging10LogMessage6streamEv(ptr noundef nonnull align 8 dereferenceable(404) %11)
          to label %40 unwind label %51

40:                                               ; preds = %38
  invoke void @_ZN7logging17LogMessageVoidifyanERSo(ptr noundef nonnull align 1 dereferenceable(1) %10, ptr noundef nonnull align 8 dereferenceable(8) %39)
          to label %41 unwind label %51

41:                                               ; preds = %40
  br label %42

42:                                               ; preds = %41, %37
  %43 = load i1, ptr %13, align 1
  br i1 %43, label %44, label %45

44:                                               ; preds = %42
  call void @_ZN7logging10LogMessageD1Ev(ptr noundef nonnull align 8 dereferenceable(404) %11) #11
  br label %45

45:                                               ; preds = %44, %42
  %46 = load i1, ptr %12, align 1
  br i1 %46, label %47, label %48

47:                                               ; preds = %45
  call void @llvm.lifetime.end.p0(i64 408, ptr %11) #11
  br label %48

48:                                               ; preds = %47, %45
  call void @llvm.lifetime.end.p0(i64 1, ptr %10) #11
  %49 = load ptr, ptr %9, align 8, !tbaa !23
  %50 = getelementptr inbounds nuw %"class.base::Pickle", ptr %14, i32 0, i32 1
  store ptr %49, ptr %50, align 8, !tbaa !32
  call void @llvm.lifetime.end.p0(i64 8, ptr %9) #11
  ret void

51:                                               ; preds = %40, %38
  %52 = landingpad { ptr, i32 }
          cleanup
  %53 = extractvalue { ptr, i32 } %52, 0
  store ptr %53, ptr %7, align 8
  %54 = extractvalue { ptr, i32 } %52, 1
  store i32 %54, ptr %8, align 4
  %55 = load i1, ptr %13, align 1
  br i1 %55, label %56, label %57

56:                                               ; preds = %51
  call void @_ZN7logging10LogMessageD1Ev(ptr noundef nonnull align 8 dereferenceable(404) %11) #11
  br label %57

57:                                               ; preds = %56, %51
  %58 = load i1, ptr %12, align 1
  br i1 %58, label %59, label %60

59:                                               ; preds = %57
  call void @llvm.lifetime.end.p0(i64 408, ptr %11) #11
  br label %60

60:                                               ; preds = %59, %57
  call void @llvm.lifetime.end.p0(i64 1, ptr %10) #11
  call void @llvm.lifetime.end.p0(i64 8, ptr %9) #11
  br label %61

61:                                               ; preds = %60, %23
  %62 = load ptr, ptr %7, align 8
  %63 = load i32, ptr %8, align 4
  %64 = insertvalue { ptr, i32 } poison, ptr %62, 0
  %65 = insertvalue { ptr, i32 } %64, i32 %63, 1
  resume { ptr, i32 } %65
}