; Function Attrs: mustprogress uwtable
define void @_ZN4base6Pickle6ResizeEm(ptr noundef nonnull align 8 dereferenceable(40) %0, i64 noundef %1) local_unnamed_addr #0 align 2 personality ptr @__gxx_personality_v0 {
  %3 = alloca %"class.logging::LogMessage", align 8
  %4 = alloca %"class.logging::LogMessage", align 8
  %5 = getelementptr inbounds nuw i8, ptr %0, i64 24
  %6 = load i64, ptr %5, align 8, !tbaa !28
  %.not.i = icmp eq i64 %6, -1
  br i1 %.not.i, label %_ZN7logging11CheckNEImplImmEEPNSt7__cxx1112basic_stringIcSt11char_traitsIcESaIcEEERKT_RKT0_PKc.exit, label %_ZN7logging11CheckNEImplImmEEPNSt7__cxx1112basic_stringIcSt11char_traitsIcESaIcEEERKT_RKT0_PKc.exit.thread

_ZN7logging11CheckNEImplImmEEPNSt7__cxx1112basic_stringIcSt11char_traitsIcESaIcEEERKT_RKT0_PKc.exit: ; preds = %2
  %7 = tail call noundef ptr @_ZN7logging17MakeCheckOpStringImmEEPNSt7__cxx1112basic_stringIcSt11char_traitsIcESaIcEEERKT_RKT0_PKc(ptr noundef nonnull align 8 dereferenceable(8) %5, ptr noundef nonnull align 8 dereferenceable(8) @_ZN4baseL17kCapacityReadOnlyE, ptr noundef nonnull @.str.2)
  %.not.i7 = icmp eq ptr %7, null
  br i1 %.not.i7, label %_ZN7logging11CheckNEImplImmEEPNSt7__cxx1112basic_stringIcSt11char_traitsIcESaIcEEERKT_RKT0_PKc.exit.thread, label %8

8:                                                ; preds = %_ZN7logging11CheckNEImplImmEEPNSt7__cxx1112basic_stringIcSt11char_traitsIcESaIcEEERKT_RKT0_PKc.exit
  call void @llvm.lifetime.start.p0(i64 408, ptr nonnull %3) #17
  call void @_ZN7logging10LogMessageC1EPKciPNSt7__cxx1112basic_stringIcSt11char_traitsIcESaIcEEE(ptr noundef nonnull align 8 dereferenceable(404) %3, ptr noundef nonnull @.str, i32 noundef 381, ptr noundef nonnull %7)
  call void @_ZN7logging10LogMessageD1Ev(ptr noundef nonnull align 8 dereferenceable(404) %3) #17
  call void @llvm.lifetime.end.p0(i64 408, ptr nonnull %3) #17
  br label %_ZN7logging11CheckNEImplImmEEPNSt7__cxx1112basic_stringIcSt11char_traitsIcESaIcEEERKT_RKT0_PKc.exit.thread

_ZN7logging11CheckNEImplImmEEPNSt7__cxx1112basic_stringIcSt11char_traitsIcESaIcEEERKT_RKT0_PKc.exit.thread: ; preds = %2, %_ZN7logging11CheckNEImplImmEEPNSt7__cxx1112basic_stringIcSt11char_traitsIcESaIcEEERKT_RKT0_PKc.exit, %8
  %9 = add i64 %1, 63
  %10 = and i64 %9, -64
  store i64 %10, ptr %5, align 8, !tbaa !12
  %11 = getelementptr inbounds nuw i8, ptr %0, i64 8
  %12 = load ptr, ptr %11, align 8, !tbaa !13
  %13 = getelementptr inbounds nuw i8, ptr %0, i64 16
  %14 = load i64, ptr %13, align 8
  %15 = add i64 %14, %10
  %16 = call ptr @realloc(ptr noundef %12, i64 noundef %15) #19
  %.not = icmp eq ptr %16, null
  br i1 %.not, label %.critedge, label %.critedge6

.critedge:                                        ; preds = %_ZN7logging11CheckNEImplImmEEPNSt7__cxx1112basic_stringIcSt11char_traitsIcESaIcEEERKT_RKT0_PKc.exit.thread
  call void @llvm.lifetime.start.p0(i64 408, ptr nonnull %4) #17
  call void @_ZN7logging10LogMessageC1EPKciS2_(ptr noundef nonnull align 8 dereferenceable(404) %4, ptr noundef nonnull @.str, i32 noundef 384, ptr noundef nonnull @.str.3)
  call void @_ZN7logging10LogMessageD1Ev(ptr noundef nonnull align 8 dereferenceable(404) %4) #17
  call void @llvm.lifetime.end.p0(i64 408, ptr nonnull %4) #17
  br label %.critedge6

.critedge6:                                       ; preds = %_ZN7logging11CheckNEImplImmEEPNSt7__cxx1112basic_stringIcSt11char_traitsIcESaIcEEERKT_RKT0_PKc.exit.thread, %.critedge
  store ptr %16, ptr %11, align 8, !tbaa !13
  ret void
}